target datalayout = "e-m:e-p270:32:32-p271:32:32-p272:64:64-i64:64-i128:128-f80:128-n8:16:32:64-S128"
target triple = "x86_64-pc-linux-gnu"

%"struct.base::Time::Exploded" = type { i32, i32, i32, i32, i32, i32, i32, i32 }

; Function Attrs: mustprogress nounwind uwtable
define noundef zeroext i1 @_ZN4base4Time20ExplodedMostlyEqualsERKNS0_8ExplodedES3_(ptr noundef nonnull align 4 dereferenceable(32) %0, ptr noundef nonnull align 4 dereferenceable(32) %1) #1 align 2 {
  %3 = alloca ptr, align 8
  %4 = alloca ptr, align 8
  store ptr %0, ptr %3, align 8, !tbaa !42
  store ptr %1, ptr %4, align 8, !tbaa !42
  %5 = load ptr, ptr %3, align 8, !tbaa !42
  %6 = getelementptr inbounds nuw %"struct.base::Time::Exploded", ptr %5, i32 0, i32 0
  %7 = load i32, ptr %6, align 4, !tbaa !50
  %8 = load ptr, ptr %4, align 8, !tbaa !42
  %9 = getelementptr inbounds nuw %"struct.base::Time::Exploded", ptr %8, i32 0, i32 0
  %10 = load i32, ptr %9, align 4, !tbaa !50
  %11 = icmp eq i32 %7, %10
  br i1 %11, label %12, label %60

12:                                               ; preds = %2
  %13 = load ptr, ptr %3, align 8, !tbaa !42
  %14 = getelementptr inbounds nuw %"struct.base::Time::Exploded", ptr %13, i32 0, i32 1
  %15 = load i32, ptr %14, align 4, !tbaa !51
  %16 = load ptr, ptr %4, align 8, !tbaa !42
  %17 = getelementptr inbounds nuw %"struct.base::Time::Exploded", ptr %16, i32 0, i32 1
  %18 = load i32, ptr %17, align 4, !tbaa !51
  %19 = icmp eq i32 %15, %18
  br i1 %19, label %20, label %60

20:                                               ; preds = %12
  %21 = load ptr, ptr %3, align 8, !tbaa !42
  %22 = getelementptr inbounds nuw %"struct.base::Time::Exploded", ptr %21, i32 0, i32 3
  %23 = load i32, ptr %22, align 4, !tbaa !52
  %24 = load ptr, ptr %4, align 8, !tbaa !42
  %25 = getelementptr inbounds nuw %"struct.base::Time::Exploded", ptr %24, i32 0, i32 3
  %26 = load i32, ptr %25, align 4, !tbaa !52
  %27 = icmp eq i32 %23, %26
  br i1 %27, label %28, label %60

28:                                               ; preds = %20
  %29 = load ptr, ptr %3, align 8, !tbaa !42
  %30 = getelementptr inbounds nuw %"struct.base::Time::Exploded", ptr %29, i32 0, i32 4
  %31 = load i32, ptr %30, align 4, !tbaa !36
  %32 = load ptr, ptr %4, align 8, !tbaa !42
  %33 = getelementptr inbounds nuw %"struct.base::Time::Exploded", ptr %32, i32 0, i32 4
  %34 = load i32, ptr %33, align 4, !tbaa !36
  %35 = icmp eq i32 %31, %34
  br i1 %35, label %36, label %60

36:                                               ; preds = %28
  %37 = load ptr, ptr %3, align 8, !tbaa !42
  %38 = getelementptr inbounds nuw %"struct.base::Time::Exploded", ptr %37, i32 0, i32 5
  %39 = load i32, ptr %38, align 4, !tbaa !39
  %40 = load ptr, ptr %4, align 8, !tbaa !42
  %41 = getelementptr inbounds nuw %"struct.base::Time::Exploded", ptr %40, i32 0, i32 5
  %42 = load i32, ptr %41, align 4, !tbaa !39
  %43 = icmp eq i32 %39, %42
  br i1 %43, label %44, label %60

44:                                               ; preds = %36
  %45 = load ptr, ptr %3, align 8, !tbaa !42
  %46 = getelementptr inbounds nuw %"struct.base::Time::Exploded", ptr %45, i32 0, i32 6
  %47 = load i32, ptr %46, align 4, !tbaa !40
  %48 = load ptr, ptr %4, align 8, !tbaa !42
  %49 = getelementptr inbounds nuw %"struct.base::Time::Exploded", ptr %48, i32 0, i32 6
  %50 = load i32, ptr %49, align 4, !tbaa !40
  %51 = icmp eq i32 %47, %50
  br i1 %51, label %52, label %60

52:                                               ; preds = %44
  %53 = load ptr, ptr %3, align 8, !tbaa !42
  %54 = getelementptr inbounds nuw %"struct.base::Time::Exploded", ptr %53, i32 0, i32 7
  %55 = load i32, ptr %54, align 4, !tbaa !41
  %56 = load ptr, ptr %4, align 8, !tbaa !42
  %57 = getelementptr inbounds nuw %"struct.base::Time::Exploded", ptr %56, i32 0, i32 7
  %58 = load i32, ptr %57, align 4, !tbaa !41
  %59 = icmp eq i32 %55, %58
  br label %60

60:                                               ; preds = %52, %44, %36, %28, %20, %12, %2
  %61 = phi i1 [ false, %44 ], [ false, %36 ], [ false, %28 ], [ false, %20 ], [ false, %12 ], [ false, %2 ], [ %59, %52 ]
  ret i1 %61
}