; Function Attrs: mustprogress nofree norecurse nosync nounwind willreturn memory(argmem: read) uwtable
define noundef zeroext i1 @_ZN4base4Time20ExplodedMostlyEqualsERKNS0_8ExplodedES3_(ptr noundef nonnull readonly align 4 captures(none) dereferenceable(32) %0, ptr noundef nonnull readonly align 4 captures(none) dereferenceable(32) %1) local_unnamed_addr #1 align 2 {
  %3 = load i32, ptr %0, align 4, !tbaa !15
  %4 = load i32, ptr %1, align 4, !tbaa !15
  %5 = icmp eq i32 %3, %4
  br i1 %5, label %6, label %42

6:                                                ; preds = %2
  %7 = getelementptr inbounds nuw i8, ptr %0, i64 4
  %8 = load i32, ptr %7, align 4, !tbaa !18
  %9 = getelementptr inbounds nuw i8, ptr %1, i64 4
  %10 = load i32, ptr %9, align 4, !tbaa !18
  %11 = icmp eq i32 %8, %10
  br i1 %11, label %12, label %42

12:                                               ; preds = %6
  %13 = getelementptr inbounds nuw i8, ptr %0, i64 12
  %14 = load i32, ptr %13, align 4, !tbaa !19
  %15 = getelementptr inbounds nuw i8, ptr %1, i64 12
  %16 = load i32, ptr %15, align 4, !tbaa !19
  %17 = icmp eq i32 %14, %16
  br i1 %17, label %18, label %42

18:                                               ; preds = %12
  %19 = getelementptr inbounds nuw i8, ptr %0, i64 16
  %20 = load i32, ptr %19, align 4, !tbaa !20
  %21 = getelementptr inbounds nuw i8, ptr %1, i64 16
  %22 = load i32, ptr %21, align 4, !tbaa !20
  %23 = icmp eq i32 %20, %22
  br i1 %23, label %24, label %42

24:                                               ; preds = %18
  %25 = getelementptr inbounds nuw i8, ptr %0, i64 20
  %26 = load i32, ptr %25, align 4, !tbaa !21
  %27 = getelementptr inbounds nuw i8, ptr %1, i64 20
  %28 = load i32, ptr %27, align 4, !tbaa !21
  %29 = icmp eq i32 %26, %28
  br i1 %29, label %30, label %42

30:                                               ; preds = %24
  %31 = getelementptr inbounds nuw i8, ptr %0, i64 24
  %32 = load i32, ptr %31, align 4, !tbaa !22
  %33 = getelementptr inbounds nuw i8, ptr %1, i64 24
  %34 = load i32, ptr %33, align 4, !tbaa !22
  %35 = icmp eq i32 %32, %34
  br i1 %35, label %36, label %42

36:                                               ; preds = %30
  %37 = getelementptr inbounds nuw i8, ptr %0, i64 28
  %38 = load i32, ptr %37, align 4, !tbaa !23
  %39 = getelementptr inbounds nuw i8, ptr %1, i64 28
  %40 = load i32, ptr %39, align 4, !tbaa !23
  %41 = icmp eq i32 %38, %40
  br label %42

42:                                               ; preds = %36, %30, %24, %18, %12, %6, %2
  %43 = phi i1 [ false, %30 ], [ false, %24 ], [ false, %18 ], [ false, %12 ], [ false, %6 ], [ false, %2 ], [ %41, %36 ]
  ret i1 %43
}